target datalayout = "e-m:e-p270:32:32-p271:32:32-p272:64:64-i64:64-i128:128-f80:128-n8:16:32:64-S128"
target triple = "x86_64-pc-linux-gnu"

%struct.PLpgSQL_nsitem = type { i32, i32, ptr, [0 x i8] }

@ns_top = internal global ptr null, align 8
@.str = private unnamed_addr constant [1 x i8] zeroinitializer, align 1

; Function Attrs: nounwind uwtable
define hidden void @plpgsql_ns_additem(i32 noundef %0, i32 noundef %1, ptr noundef %2) #0 {
  %4 = alloca i32, align 4
  %5 = alloca i32, align 4
  %6 = alloca ptr, align 8
  %7 = alloca ptr, align 8
  store i32 %0, ptr %4, align 4
  store i32 %1, ptr %5, align 4
  store ptr %2, ptr %6, align 8
  call void @llvm.lifetime.start.p0(i64 8, ptr %7) #8
  %8 = load ptr, ptr %6, align 8
  %9 = call i64 @strlen(ptr noundef %8) #9
  %10 = add i64 16, %9
  %11 = add i64 %10, 1
  %12 = call ptr @palloc(i64 noundef %11)
  store ptr %12, ptr %7, align 8
  %13 = load i32, ptr %4, align 4
  %14 = load ptr, ptr %7, align 8
  %15 = getelementptr inbounds nuw %struct.PLpgSQL_nsitem, ptr %14, i32 0, i32 0
  store i32 %13, ptr %15, align 8
  %16 = load i32, ptr %5, align 4
  %17 = load ptr, ptr %7, align 8
  %18 = getelementptr inbounds nuw %struct.PLpgSQL_nsitem, ptr %17, i32 0, i32 1
  store i32 %16, ptr %18, align 4
  %19 = load ptr, ptr @ns_top, align 8
  %20 = load ptr, ptr %7, align 8
  %21 = getelementptr inbounds nuw %struct.PLpgSQL_nsitem, ptr %20, i32 0, i32 2
  store ptr %19, ptr %21, align 8
  %22 = load ptr, ptr %7, align 8
  %23 = getelementptr inbounds nuw %struct.PLpgSQL_nsitem, ptr %22, i32 0, i32 3
  %24 = getelementptr inbounds [0 x i8], ptr %23, i64 0, i64 0
  %25 = load ptr, ptr %6, align 8
  %26 = call ptr @strcpy(ptr noundef %24, ptr noundef %25) #8
  %27 = load ptr, ptr %7, align 8
  store ptr %27, ptr @ns_top, align 8
  call void @llvm.lifetime.end.p0(i64 8, ptr %7) #8
  ret void
}

; Function Attrs: nounwind uwtable
define hidden void @plpgsql_ns_push(ptr noundef %0, i32 noundef %1) #0 {
  %3 = alloca ptr, align 8
  %4 = alloca i32, align 4
  store ptr %0, ptr %3, align 8
  store i32 %1, ptr %4, align 4
  %5 = load ptr, ptr %3, align 8
  %6 = icmp eq ptr %5, null
  br i1 %6, label %7, label %8

7:                                                ; preds = %2
  store ptr @.str, ptr %3, align 8
  br label %8

8:                                                ; preds = %7, %2
  %9 = load i32, ptr %4, align 4
  %10 = load ptr, ptr %3, align 8
  call void @plpgsql_ns_additem(i32 noundef 0, i32 noundef %9, ptr noundef %10)
  ret void
}